---
triple:          'arm64-apple-darwin'
binary-path:     '/Users/jvmcpheron/Documents/Code/CS2/CS2_Lab1/main'
relocations:
  - { offsetInCU: 0x47C6, offset: 0x47C6, size: 0x8, addend: 0x0, symName: __ZNSt3__124__put_character_sequenceB7v160006IcNS_11char_traitsIcEEEERNS_13basic_ostreamIT_T0_EES7_PKS4_m, symObjAddr: 0x1448, symBinAddr: 0x100004378, symSize: 0x1EC }
  - { offsetInCU: 0x7B02, offset: 0x7B02, size: 0x8, addend: 0x0, symName: __ZNSt3__1lsB7v160006INS_11char_traitsIcEEEERNS_13basic_ostreamIcT_EES6_PKc, symObjAddr: 0x7B4, symBinAddr: 0x1000036E4, symSize: 0x48 }
  - { offsetInCU: 0x7B48, offset: 0x7B48, size: 0x8, addend: 0x0, symName: __ZNSt3__14endlB7v160006IcNS_11char_traitsIcEEEERNS_13basic_ostreamIT_T0_EES7_, symObjAddr: 0x828, symBinAddr: 0x100003758, symSize: 0x58 }
  - { offsetInCU: 0x7B88, offset: 0x7B88, size: 0x8, addend: 0x0, symName: __ZNSt3__17getlineB7v160006IcNS_11char_traitsIcEENS_9allocatorIcEEEERNS_13basic_istreamIT_T0_EES9_RNS_12basic_stringIS6_S7_T1_EE, symObjAddr: 0x8AC, symBinAddr: 0x1000037DC, symSize: 0x5C }
  - { offsetInCU: 0x7BE0, offset: 0x7BE0, size: 0x8, addend: 0x0, symName: __ZNSt3__17getlineB7v160006IcNS_11char_traitsIcEENS_9allocatorIcEEEERNS_13basic_istreamIT_T0_EES9_RNS_12basic_stringIS6_S7_T1_EES6_, symObjAddr: 0xA30, symBinAddr: 0x100003960, symSize: 0x238 }
  - { offsetInCU: 0x7C9E, offset: 0x7C9E, size: 0x8, addend: 0x0, symName: __ZNSt3__1rsB7v160006INS_19basic_istringstreamIcNS_11char_traitsIcEENS_9allocatorIcEEEERivEEOT_S9_OT0_, symObjAddr: 0xD88, symBinAddr: 0x100003CB8, symSize: 0x30 }
  - { offsetInCU: 0x7CEE, offset: 0x7CEE, size: 0x8, addend: 0x0, symName: __ZNSt3__1rsB7v160006INS_19basic_istringstreamIcNS_11char_traitsIcEENS_9allocatorIcEEEERfvEEOT_S9_OT0_, symObjAddr: 0xE2C, symBinAddr: 0x100003D5C, symSize: 0x30 }
  - { offsetInCU: 0x7D3E, offset: 0x7D3E, size: 0x8, addend: 0x0, symName: __ZNSt3__1neB7v160006IPP8SElementEEbRKNS_11__wrap_iterIT_EES8_, symObjAddr: 0xF24, symBinAddr: 0x100003E54, symSize: 0x34 }
  - { offsetInCU: 0x7D8C, offset: 0x7D8C, size: 0x8, addend: 0x0, symName: __ZNSt3__1lsB7v160006IcNS_11char_traitsIcEENS_9allocatorIcEEEERNS_13basic_ostreamIT_T0_EES9_RKNS_12basic_stringIS6_S7_T1_EE, symObjAddr: 0x13FC, symBinAddr: 0x10000432C, symSize: 0x4C }
  - { offsetInCU: 0x7DE4, offset: 0x7DE4, size: 0x8, addend: 0x0, symName: __ZNSt3__116__pad_and_outputB7v160006IcNS_11char_traitsIcEEEENS_19ostreambuf_iteratorIT_T0_EES6_PKS4_S8_S8_RNS_8ios_baseES4_, symObjAddr: 0x16CC, symBinAddr: 0x1000045FC, symSize: 0x240 }
  - { offsetInCU: 0x7EB3, offset: 0x7EB3, size: 0x8, addend: 0x0, symName: __ZNSt3__119__debug_db_insert_cB7v160006INS_12basic_stringIcNS_11char_traitsIcEENS_9allocatorIcEEEEEEvPT_, symObjAddr: 0x1B64, symBinAddr: 0x100004A94, symSize: 0x10 }
  - { offsetInCU: 0x7EE4, offset: 0x7EE4, size: 0x8, addend: 0x0, symName: __ZNSt3__19use_facetB7v160006INS_5ctypeIcEEEERKT_RKNS_6localeE, symObjAddr: 0x1D74, symBinAddr: 0x100004CA4, symSize: 0x2C }
  - { offsetInCU: 0x83B3, offset: 0x83B3, size: 0x8, addend: 0x0, symName: __ZNSt3__112__to_addressB7v160006IKcEEPT_S3_, symObjAddr: 0x1E0C, symBinAddr: 0x100004D3C, symSize: 0x14 }
  - { offsetInCU: 0x841B, offset: 0x841B, size: 0x8, addend: 0x0, symName: __ZNSt3__1eqB7v160006IPP8SElementEEbRKNS_11__wrap_iterIT_EES8_, symObjAddr: 0x1FA4, symBinAddr: 0x100004ED4, symSize: 0x48 }
  - { offsetInCU: 0x845E, offset: 0x845E, size: 0x8, addend: 0x0, symName: __ZNSt3__118__constexpr_strlenB7v160006EPKc, symObjAddr: 0x218C, symBinAddr: 0x1000050BC, symSize: 0x24 }
  - { offsetInCU: 0x848A, offset: 0x848A, size: 0x8, addend: 0x0, symName: __ZNSt3__119__debug_db_insert_cB7v160006INS_6vectorIP8SElementNS_9allocatorIS3_EEEEEEvPT_, symObjAddr: 0x2244, symBinAddr: 0x100005174, symSize: 0x10 }
  - { offsetInCU: 0x84BB, offset: 0x84BB, size: 0x8, addend: 0x0, symName: __ZNSt3__118__debug_db_erase_cB7v160006INS_6vectorIP8SElementNS_9allocatorIS3_EEEEEEvPT_, symObjAddr: 0x2508, symBinAddr: 0x100005438, symSize: 0x10 }
  - { offsetInCU: 0x84EC, offset: 0x84EC, size: 0x8, addend: 0x0, symName: __ZNSt3__112__to_addressB7v160006IP8SElementEEPT_S4_, symObjAddr: 0x264C, symBinAddr: 0x10000557C, symSize: 0x14 }
  - { offsetInCU: 0x8521, offset: 0x8521, size: 0x8, addend: 0x0, symName: __ZNSt3__119__libcpp_deallocateB7v160006EPvmm, symObjAddr: 0x276C, symBinAddr: 0x10000569C, symSize: 0x30 }
  - { offsetInCU: 0x8569, offset: 0x8569, size: 0x8, addend: 0x0, symName: __ZNSt3__127__do_deallocate_handle_sizeB7v160006IJEEEvPvmDpT_, symObjAddr: 0x279C, symBinAddr: 0x1000056CC, symSize: 0x28 }
  - { offsetInCU: 0x85A7, offset: 0x85A7, size: 0x8, addend: 0x0, symName: __ZNSt3__124__libcpp_operator_deleteB7v160006IJPvEEEvDpT_, symObjAddr: 0x27C4, symBinAddr: 0x1000056F4, symSize: 0x24 }
  - { offsetInCU: 0x85DC, offset: 0x85DC, size: 0x8, addend: 0x0, symName: __ZNSt3__125__debug_db_invalidate_allB7v160006INS_12basic_stringIcNS_11char_traitsIcEENS_9allocatorIcEEEEEEvPT_, symObjAddr: 0x2F1C, symBinAddr: 0x100005E4C, symSize: 0x10 }
  - { offsetInCU: 0x8842, offset: 0x8842, size: 0x8, addend: 0x0, symName: __ZNSt3__13maxB7v160006ImEERKT_S3_S3_, symObjAddr: 0x368C, symBinAddr: 0x1000065BC, symSize: 0x2C }
  - { offsetInCU: 0x8885, offset: 0x8885, size: 0x8, addend: 0x0, symName: __ZNSt3__13minB7v160006ImEERKT_S3_S3_, symObjAddr: 0x36B8, symBinAddr: 0x1000065E8, symSize: 0x2C }
  - { offsetInCU: 0x8AC9, offset: 0x8AC9, size: 0x8, addend: 0x0, symName: __ZNSt3__13minB7v160006ImNS_6__lessImmEEEERKT_S5_S5_T0_, symObjAddr: 0x3744, symBinAddr: 0x100006674, symSize: 0x54 }
  - { offsetInCU: 0x8B5E, offset: 0x8B5E, size: 0x8, addend: 0x0, symName: __ZNSt3__120__throw_length_errorB7v160006EPKc, symObjAddr: 0x3820, symBinAddr: 0x100006750, symSize: 0x64 }
  - { offsetInCU: 0x8B86, offset: 0x8B86, size: 0x8, addend: 0x0, symName: __ZNSt3__13maxB7v160006ImNS_6__lessImmEEEERKT_S5_S5_T0_, symObjAddr: 0x3904, symBinAddr: 0x100006834, symSize: 0x54 }
  - { offsetInCU: 0x8BE0, offset: 0x8BE0, size: 0x8, addend: 0x0, symName: __ZNSt3__119__allocate_at_leastB7v160006INS_9allocatorIP8SElementEEEENS_19__allocation_resultINS_16allocator_traitsIT_E7pointerEEERS7_m, symObjAddr: 0x3A68, symBinAddr: 0x100006998, symSize: 0x40 }
  - { offsetInCU: 0x8C23, offset: 0x8C23, size: 0x8, addend: 0x0, symName: __ZNSt3__117__libcpp_allocateB7v160006Emm, symObjAddr: 0x3BEC, symBinAddr: 0x100006B1C, symSize: 0x28 }
  - { offsetInCU: 0x8C60, offset: 0x8C60, size: 0x8, addend: 0x0, symName: __ZNSt3__121__libcpp_operator_newB7v160006IJmEEEPvDpT_, symObjAddr: 0x3C14, symBinAddr: 0x100006B44, symSize: 0x24 }
  - { offsetInCU: 0x8C99, offset: 0x8C99, size: 0x8, addend: 0x0, symName: __ZNSt3__142__uninitialized_allocator_move_if_noexceptB7v160006INS_9allocatorIP8SElementEENS_16reverse_iteratorIPS3_EES7_S3_vEET1_RT_T0_SB_S8_, symObjAddr: 0x3C9C, symBinAddr: 0x100006BCC, symSize: 0x78 }
  - { offsetInCU: 0x8D16, offset: 0x8D16, size: 0x8, addend: 0x0, symName: __ZNSt3__14swapB7v160006IPP8SElementEENS_9enable_ifIXaasr21is_move_constructibleIT_EE5valuesr18is_move_assignableIS5_EE5valueEvE4typeERS5_S8_, symObjAddr: 0x3D60, symBinAddr: 0x100006C90, symSize: 0x3C }
  - { offsetInCU: 0x8D67, offset: 0x8D67, size: 0x8, addend: 0x0, symName: __ZNSt3__125__debug_db_invalidate_allB7v160006INS_6vectorIP8SElementNS_9allocatorIS3_EEEEEEvPT_, symObjAddr: 0x3E48, symBinAddr: 0x100006D78, symSize: 0x10 }
  - { offsetInCU: 0x8D98, offset: 0x8D98, size: 0x8, addend: 0x0, symName: __ZNSt3__14moveB7v160006INS_16reverse_iteratorIPP8SElementEES5_EET0_T_S7_S6_, symObjAddr: 0x3E58, symBinAddr: 0x100006D88, symSize: 0x78 }
  - { offsetInCU: 0x8DF2, offset: 0x8DF2, size: 0x8, addend: 0x0, symName: __ZNSt3__16__moveB7v160006INS_17_ClassicAlgPolicyENS_16reverse_iteratorIPP8SElementEES6_S6_EENS_4pairIT0_T2_EES8_T1_S9_, symObjAddr: 0x3ED0, symBinAddr: 0x100006E00, symSize: 0x64 }
  - { offsetInCU: 0x8E5E, offset: 0x8E5E, size: 0x8, addend: 0x0, symName: __ZNSt3__123__dispatch_copy_or_moveB7v160006INS_17_ClassicAlgPolicyENS_11__move_loopIS1_EENS_14__move_trivialENS_16reverse_iteratorIPP8SElementEES9_S9_EENS_4pairIT2_T4_EESB_T3_SC_, symObjAddr: 0x3F34, symBinAddr: 0x100006E64, symSize: 0x64 }
  - { offsetInCU: 0x8EDC, offset: 0x8EDC, size: 0x8, addend: 0x0, symName: __ZNSt3__121__unwrap_and_dispatchB7v160006INS_10__overloadINS_11__move_loopINS_17_ClassicAlgPolicyEEENS_14__move_trivialEEENS_16reverse_iteratorIPP8SElementEESB_SB_Li0EEENS_4pairIT0_T2_EESD_T1_SE_, symObjAddr: 0x3F98, symBinAddr: 0x100006EC8, symSize: 0x12C }
  - { offsetInCU: 0x8F6C, offset: 0x8F6C, size: 0x8, addend: 0x0, symName: __ZNSt3__114__unwrap_rangeB7v160006INS_16reverse_iteratorIPP8SElementEES5_EENS_4pairIT0_S7_EET_S9_, symObjAddr: 0x40C4, symBinAddr: 0x100006FF4, symSize: 0x84 }
  - { offsetInCU: 0x90E7, offset: 0x90E7, size: 0x8, addend: 0x0, symName: __ZNSt3__113__unwrap_iterB7v160006INS_16reverse_iteratorIPP8SElementEENS_18__unwrap_iter_implIS5_Lb0EEELi0EEEDTclsrT0_8__unwrapclsr3stdE7declvalIT_EEEES9_, symObjAddr: 0x41E8, symBinAddr: 0x100007118, symSize: 0x44 }
  - { offsetInCU: 0x912B, offset: 0x912B, size: 0x8, addend: 0x0, symName: __ZNSt3__19make_pairB7v160006INS_16reverse_iteratorIPP8SElementEES5_EENS_4pairINS_18__unwrap_ref_decayIT_E4typeENS7_IT0_E4typeEEEOS8_OSB_, symObjAddr: 0x422C, symBinAddr: 0x10000715C, symSize: 0x38 }
  - { offsetInCU: 0x917A, offset: 0x917A, size: 0x8, addend: 0x0, symName: __ZNSt3__114__rewrap_rangeB7v160006INS_16reverse_iteratorIPP8SElementEES5_EET_S6_T0_, symObjAddr: 0x4264, symBinAddr: 0x100007194, symSize: 0x5C }
  - { offsetInCU: 0x91C6, offset: 0x91C6, size: 0x8, addend: 0x0, symName: __ZNSt3__113__rewrap_iterB7v160006INS_16reverse_iteratorIPP8SElementEES5_NS_18__unwrap_iter_implIS5_Lb0EEEEET_S8_T0_, symObjAddr: 0x42C0, symBinAddr: 0x1000071F0, symSize: 0x74 }
  - { offsetInCU: 0x921B, offset: 0x921B, size: 0x8, addend: 0x0, symName: __ZNSt3__1neB7v160006IPP8SElementS3_EEbRKNS_16reverse_iteratorIT_EERKNS4_IT0_EE, symObjAddr: 0x4334, symBinAddr: 0x100007264, symSize: 0x48 }
  - { offsetInCU: 0x95B9, offset: 0x95B9, size: 0x8, addend: 0x0, symName: __ZSt28__throw_bad_array_new_lengthB7v160006v, symObjAddr: 0x3BB8, symBinAddr: 0x100006AE8, symSize: 0x34 }
  - { offsetInCU: 0x9C99, offset: 0x9C99, size: 0x8, addend: 0x0, symName: __ZNSt3__16vectorIP8SElementNS_9allocatorIS2_EEE26__swap_out_circular_bufferERNS_14__split_bufferIS2_RS4_EE, symObjAddr: 0x34CC, symBinAddr: 0x1000063FC, symSize: 0x118 }
  - { offsetInCU: 0x9DA6, offset: 0x9DA6, size: 0x8, addend: 0x0, symName: __Z7isdigiti, symObjAddr: 0xD30, symBinAddr: 0x100003C60, symSize: 0x28 }
  - { offsetInCU: 0xBEE2, offset: 0xBEE2, size: 0x8, addend: 0x0, symName: _main, symObjAddr: 0x0, symBinAddr: 0x100002F30, symSize: 0x5F0 }
  - { offsetInCU: 0xC038, offset: 0xC038, size: 0x8, addend: 0x0, symName: __ZNSt3__16vectorIP8SElementNS_9allocatorIS2_EEEC1B7v160006Ev, symObjAddr: 0x5F0, symBinAddr: 0x100003520, symSize: 0x2C }
  - { offsetInCU: 0xC0F9, offset: 0xC0F9, size: 0x8, addend: 0x0, symName: __ZNSt3__114basic_ifstreamIcNS_11char_traitsIcEEEC1EPKcj, symObjAddr: 0x61C, symBinAddr: 0x10000354C, symSize: 0x16C }
  - { offsetInCU: 0xC142, offset: 0xC142, size: 0x8, addend: 0x0, symName: __ZNKSt3__114basic_ifstreamIcNS_11char_traitsIcEEE7is_openEv, symObjAddr: 0x788, symBinAddr: 0x1000036B8, symSize: 0x2C }
  - { offsetInCU: 0xC168, offset: 0xC168, size: 0x8, addend: 0x0, symName: __ZNSt3__113basic_ostreamIcNS_11char_traitsIcEEElsB7v160006EPFRS3_S4_E, symObjAddr: 0x7FC, symBinAddr: 0x10000372C, symSize: 0x2C }
  - { offsetInCU: 0xC19B, offset: 0xC19B, size: 0x8, addend: 0x0, symName: __ZNSt3__112basic_stringIcNS_11char_traitsIcEENS_9allocatorIcEEEC1B7v160006Ev, symObjAddr: 0x880, symBinAddr: 0x1000037B0, symSize: 0x2C }
  - { offsetInCU: 0xC1C4, offset: 0xC1C4, size: 0x8, addend: 0x0, symName: __ZNKSt3__19basic_iosIcNS_11char_traitsIcEEEcvbB7v160006Ev, symObjAddr: 0x908, symBinAddr: 0x100003838, symSize: 0x2C }
  - { offsetInCU: 0xC1E9, offset: 0xC1E9, size: 0x8, addend: 0x0, symName: __ZNSt3__119basic_istringstreamIcNS_11char_traitsIcEENS_9allocatorIcEEEC1B7v160006ERKNS_12basic_stringIcS2_S4_EEj, symObjAddr: 0x934, symBinAddr: 0x100003864, symSize: 0xFC }
  - { offsetInCU: 0xC230, offset: 0xC230, size: 0x8, addend: 0x0, symName: __ZNKSt3__112basic_stringIcNS_11char_traitsIcEENS_9allocatorIcEEE5emptyB7v160006Ev, symObjAddr: 0xC68, symBinAddr: 0x100003B98, symSize: 0x30 }
  - { offsetInCU: 0xC255, offset: 0xC255, size: 0x8, addend: 0x0, symName: __ZNSt3__16vectorIP8SElementNS_9allocatorIS2_EEE9push_backB7v160006EOS2_, symObjAddr: 0xC98, symBinAddr: 0x100003BC8, symSize: 0x6C }
  - { offsetInCU: 0xC2C7, offset: 0xC2C7, size: 0x8, addend: 0x0, symName: __ZN5EmptyC1Ev, symObjAddr: 0xD04, symBinAddr: 0x100003C34, symSize: 0x2C }
  - { offsetInCU: 0xC2F2, offset: 0xC2F2, size: 0x8, addend: 0x0, symName: __ZNSt3__112basic_stringIcNS_11char_traitsIcEENS_9allocatorIcEEEixB7v160006Em, symObjAddr: 0xD58, symBinAddr: 0x100003C88, symSize: 0x30 }
  - { offsetInCU: 0xC32B, offset: 0xC32B, size: 0x8, addend: 0x0, symName: __ZNSt3__119basic_istringstreamIcNS_11char_traitsIcEENS_9allocatorIcEEED1Ev, symObjAddr: 0xDB8, symBinAddr: 0x100003CE8, symSize: 0x40 }
  - { offsetInCU: 0xC3A7, offset: 0xC3A7, size: 0x8, addend: 0x0, symName: __ZN7IntegerC1Ei, symObjAddr: 0xDF8, symBinAddr: 0x100003D28, symSize: 0x34 }
  - { offsetInCU: 0xC42E, offset: 0xC42E, size: 0x8, addend: 0x0, symName: __ZN5FloatC1Ef, symObjAddr: 0xE5C, symBinAddr: 0x100003D8C, symSize: 0x34 }
  - { offsetInCU: 0xC4B5, offset: 0xC4B5, size: 0x8, addend: 0x0, symName: __ZN6StringC1ERKNSt3__112basic_stringIcNS0_11char_traitsIcEENS0_9allocatorIcEEEE, symObjAddr: 0xE90, symBinAddr: 0x100003DC0, symSize: 0x34 }
  - { offsetInCU: 0xC4EC, offset: 0xC4EC, size: 0x8, addend: 0x0, symName: __ZNSt3__16vectorIP8SElementNS_9allocatorIS2_EEE5beginB7v160006Ev, symObjAddr: 0xEC4, symBinAddr: 0x100003DF4, symSize: 0x30 }
  - { offsetInCU: 0xC512, offset: 0xC512, size: 0x8, addend: 0x0, symName: __ZNSt3__16vectorIP8SElementNS_9allocatorIS2_EEE3endB7v160006Ev, symObjAddr: 0xEF4, symBinAddr: 0x100003E24, symSize: 0x30 }
  - { offsetInCU: 0xC538, offset: 0xC538, size: 0x8, addend: 0x0, symName: __ZNKSt3__111__wrap_iterIPP8SElementEdeB7v160006Ev, symObjAddr: 0xF58, symBinAddr: 0x100003E88, symSize: 0x18 }
  - { offsetInCU: 0xC55D, offset: 0xC55D, size: 0x8, addend: 0x0, symName: __ZNSt3__111__wrap_iterIPP8SElementEppB7v160006Ev, symObjAddr: 0xF70, symBinAddr: 0x100003EA0, symSize: 0x20 }
  - { offsetInCU: 0xC587, offset: 0xC587, size: 0x8, addend: 0x0, symName: __ZNSt3__114basic_ifstreamIcNS_11char_traitsIcEEED1Ev, symObjAddr: 0xF90, symBinAddr: 0x100003EC0, symSize: 0x40 }
  - { offsetInCU: 0xC5B3, offset: 0xC5B3, size: 0x8, addend: 0x0, symName: __ZNSt3__16vectorIP8SElementNS_9allocatorIS2_EEED1B7v160006Ev, symObjAddr: 0xFD0, symBinAddr: 0x100003F00, symSize: 0x2C }
  - { offsetInCU: 0xC5DC, offset: 0xC5DC, size: 0x8, addend: 0x0, symName: __ZN5EmptyC2Ev, symObjAddr: 0xFFC, symBinAddr: 0x100003F2C, symSize: 0x44 }
  - { offsetInCU: 0xC607, offset: 0xC607, size: 0x8, addend: 0x0, symName: __ZN8SElementC2Ev, symObjAddr: 0x1040, symBinAddr: 0x100003F70, symSize: 0x24 }
  - { offsetInCU: 0xC632, offset: 0xC632, size: 0x8, addend: 0x0, symName: __ZN5Empty16showValueAndTypeEv, symObjAddr: 0x1064, symBinAddr: 0x100003F94, symSize: 0x30 }
  - { offsetInCU: 0xC656, offset: 0xC656, size: 0x8, addend: 0x0, symName: __Z9__isctypeim, symObjAddr: 0x1094, symBinAddr: 0x100003FC4, symSize: 0x80 }
  - { offsetInCU: 0xC691, offset: 0xC691, size: 0x8, addend: 0x0, symName: __ZNSt3__119basic_istringstreamIcNS_11char_traitsIcEENS_9allocatorIcEEED2Ev, symObjAddr: 0x1114, symBinAddr: 0x100004044, symSize: 0x64 }
  - { offsetInCU: 0xC6C9, offset: 0xC6C9, size: 0x8, addend: 0x0, symName: __ZTv0_n24_NSt3__119basic_istringstreamIcNS_11char_traitsIcEENS_9allocatorIcEEED1Ev, symObjAddr: 0x1178, symBinAddr: 0x1000040A8, symSize: 0x28 }
  - { offsetInCU: 0xC6E5, offset: 0xC6E5, size: 0x8, addend: 0x0, symName: __ZNSt3__115basic_stringbufIcNS_11char_traitsIcEENS_9allocatorIcEEED1Ev, symObjAddr: 0x11A0, symBinAddr: 0x1000040D0, symSize: 0x2C }
  - { offsetInCU: 0xC711, offset: 0xC711, size: 0x8, addend: 0x0, symName: __ZNSt3__115basic_stringbufIcNS_11char_traitsIcEENS_9allocatorIcEEED2Ev, symObjAddr: 0x11CC, symBinAddr: 0x1000040FC, symSize: 0x48 }
  - { offsetInCU: 0xC73D, offset: 0xC73D, size: 0x8, addend: 0x0, symName: __ZN7IntegerC2Ei, symObjAddr: 0x1214, symBinAddr: 0x100004144, symSize: 0x50 }
  - { offsetInCU: 0xC774, offset: 0xC774, size: 0x8, addend: 0x0, symName: __ZN7Integer16showValueAndTypeEv, symObjAddr: 0x1264, symBinAddr: 0x100004194, symSize: 0x50 }
  - { offsetInCU: 0xC799, offset: 0xC799, size: 0x8, addend: 0x0, symName: __ZN5FloatC2Ef, symObjAddr: 0x12B4, symBinAddr: 0x1000041E4, symSize: 0x50 }
  - { offsetInCU: 0xC7D0, offset: 0xC7D0, size: 0x8, addend: 0x0, symName: __ZN5Float16showValueAndTypeEv, symObjAddr: 0x1304, symBinAddr: 0x100004234, symSize: 0x50 }
  - { offsetInCU: 0xC7F5, offset: 0xC7F5, size: 0x8, addend: 0x0, symName: __ZN6StringC2ERKNSt3__112basic_stringIcNS0_11char_traitsIcEENS0_9allocatorIcEEEE, symObjAddr: 0x1354, symBinAddr: 0x100004284, symSize: 0x58 }
  - { offsetInCU: 0xC82C, offset: 0xC82C, size: 0x8, addend: 0x0, symName: __ZN6String16showValueAndTypeEv, symObjAddr: 0x13AC, symBinAddr: 0x1000042DC, symSize: 0x50 }
  - { offsetInCU: 0xC851, offset: 0xC851, size: 0x8, addend: 0x0, symName: __ZNKSt3__112basic_stringIcNS_11char_traitsIcEENS_9allocatorIcEEE4dataB7v160006Ev, symObjAddr: 0x1634, symBinAddr: 0x100004564, symSize: 0x28 }
  - { offsetInCU: 0xC876, offset: 0xC876, size: 0x8, addend: 0x0, symName: __ZNKSt3__112basic_stringIcNS_11char_traitsIcEENS_9allocatorIcEEE4sizeB7v160006Ev, symObjAddr: 0x165C, symBinAddr: 0x10000458C, symSize: 0x54 }
  - { offsetInCU: 0xC8B9, offset: 0xC8B9, size: 0x8, addend: 0x0, symName: __ZNKSt3__113basic_ostreamIcNS_11char_traitsIcEEE6sentrycvbB7v160006Ev, symObjAddr: 0x16B0, symBinAddr: 0x1000045E0, symSize: 0x1C }
  - { offsetInCU: 0xC8DE, offset: 0xC8DE, size: 0x8, addend: 0x0, symName: __ZNSt3__119ostreambuf_iteratorIcNS_11char_traitsIcEEEC1B7v160006ERNS_13basic_ostreamIcS2_EE, symObjAddr: 0x190C, symBinAddr: 0x10000483C, symSize: 0x34 }
  - { offsetInCU: 0xC915, offset: 0xC915, size: 0x8, addend: 0x0, symName: __ZNKSt3__18ios_base5flagsB7v160006Ev, symObjAddr: 0x1940, symBinAddr: 0x100004870, symSize: 0x18 }
  - { offsetInCU: 0xC93C, offset: 0xC93C, size: 0x8, addend: 0x0, symName: __ZNKSt3__19basic_iosIcNS_11char_traitsIcEEE4fillB7v160006Ev, symObjAddr: 0x1958, symBinAddr: 0x100004888, symSize: 0x64 }
  - { offsetInCU: 0xC962, offset: 0xC962, size: 0x8, addend: 0x0, symName: __ZNKSt3__119ostreambuf_iteratorIcNS_11char_traitsIcEEE6failedB7v160006Ev, symObjAddr: 0x19BC, symBinAddr: 0x1000048EC, symSize: 0x24 }
  - { offsetInCU: 0xC987, offset: 0xC987, size: 0x8, addend: 0x0, symName: __ZNSt3__19basic_iosIcNS_11char_traitsIcEEE8setstateB7v160006Ej, symObjAddr: 0x19E0, symBinAddr: 0x100004910, symSize: 0x2C }
  - { offsetInCU: 0xC9BB, offset: 0xC9BB, size: 0x8, addend: 0x0, symName: __ZNKSt3__18ios_base5widthB7v160006Ev, symObjAddr: 0x1A18, symBinAddr: 0x100004948, symSize: 0x18 }
  - { offsetInCU: 0xC9E2, offset: 0xC9E2, size: 0x8, addend: 0x0, symName: __ZNSt3__115basic_streambufIcNS_11char_traitsIcEEE5sputnB7v160006EPKcl, symObjAddr: 0x1A30, symBinAddr: 0x100004960, symSize: 0x3C }
  - { offsetInCU: 0xCA23, offset: 0xCA23, size: 0x8, addend: 0x0, symName: __ZNSt3__112basic_stringIcNS_11char_traitsIcEENS_9allocatorIcEEEC1B7v160006Emc, symObjAddr: 0x1A6C, symBinAddr: 0x10000499C, symSize: 0x3C }
  - { offsetInCU: 0xCA6A, offset: 0xCA6A, size: 0x8, addend: 0x0, symName: __ZNSt3__18ios_base5widthB7v160006El, symObjAddr: 0x1AA8, symBinAddr: 0x1000049D8, symSize: 0x2C }
  - { offsetInCU: 0xCAAF, offset: 0xCAAF, size: 0x8, addend: 0x0, symName: __ZNSt3__112basic_stringIcNS_11char_traitsIcEENS_9allocatorIcEEEC2B7v160006Emc, symObjAddr: 0x1AD4, symBinAddr: 0x100004A04, symSize: 0x54 }
  - { offsetInCU: 0xCAFB, offset: 0xCAFB, size: 0x8, addend: 0x0, symName: __ZNSt3__117__compressed_pairINS_12basic_stringIcNS_11char_traitsIcEENS_9allocatorIcEEE5__repES5_EC1B7v160006INS_18__default_init_tagESA_EEOT_OT0_, symObjAddr: 0x1B28, symBinAddr: 0x100004A58, symSize: 0x3C }
  - { offsetInCU: 0xCB52, offset: 0xCB52, size: 0x8, addend: 0x0, symName: __ZNSt3__117__compressed_pairINS_12basic_stringIcNS_11char_traitsIcEENS_9allocatorIcEEE5__repES5_EC2B7v160006INS_18__default_init_tagESA_EEOT_OT0_, symObjAddr: 0x1B74, symBinAddr: 0x100004AA4, symSize: 0x3C }
  - { offsetInCU: 0xCBA9, offset: 0xCBA9, size: 0x8, addend: 0x0, symName: __ZNSt3__122__compressed_pair_elemINS_12basic_stringIcNS_11char_traitsIcEENS_9allocatorIcEEE5__repELi0ELb0EEC2B7v160006ENS_18__default_init_tagE, symObjAddr: 0x1BB0, symBinAddr: 0x100004AE0, symSize: 0x14 }
  - { offsetInCU: 0xCBDD, offset: 0xCBDD, size: 0x8, addend: 0x0, symName: __ZNSt3__122__compressed_pair_elemINS_9allocatorIcEELi1ELb1EEC2B7v160006ENS_18__default_init_tagE, symObjAddr: 0x1BC4, symBinAddr: 0x100004AF4, symSize: 0x2C }
  - { offsetInCU: 0xCC11, offset: 0xCC11, size: 0x8, addend: 0x0, symName: __ZNSt3__19allocatorIcEC2B7v160006Ev, symObjAddr: 0x1BF0, symBinAddr: 0x100004B20, symSize: 0x2C }
  - { offsetInCU: 0xCC3A, offset: 0xCC3A, size: 0x8, addend: 0x0, symName: __ZNSt3__116__non_trivial_ifILb1ENS_9allocatorIcEEEC2B7v160006Ev, symObjAddr: 0x1C1C, symBinAddr: 0x100004B4C, symSize: 0x14 }
  - { offsetInCU: 0xCC63, offset: 0xCC63, size: 0x8, addend: 0x0, symName: __ZNSt3__119ostreambuf_iteratorIcNS_11char_traitsIcEEEC2B7v160006ERNS_13basic_ostreamIcS2_EE, symObjAddr: 0x1C30, symBinAddr: 0x100004B60, symSize: 0x54 }
  - { offsetInCU: 0xCC9A, offset: 0xCC9A, size: 0x8, addend: 0x0, symName: __ZNKSt3__19basic_iosIcNS_11char_traitsIcEEE5rdbufB7v160006Ev, symObjAddr: 0x1C84, symBinAddr: 0x100004BB4, symSize: 0x24 }
  - { offsetInCU: 0xCCC0, offset: 0xCCC0, size: 0x8, addend: 0x0, symName: __ZNKSt3__18ios_base5rdbufB7v160006Ev, symObjAddr: 0x1CA8, symBinAddr: 0x100004BD8, symSize: 0x18 }
  - { offsetInCU: 0xCCE5, offset: 0xCCE5, size: 0x8, addend: 0x0, symName: __ZNSt3__111char_traitsIcE11eq_int_typeEii, symObjAddr: 0x1CC0, symBinAddr: 0x100004BF0, symSize: 0x28 }
  - { offsetInCU: 0xCD16, offset: 0xCD16, size: 0x8, addend: 0x0, symName: __ZNSt3__111char_traitsIcE3eofEv, symObjAddr: 0x1CE8, symBinAddr: 0x100004C18, symSize: 0x8 }
  - { offsetInCU: 0xCD2A, offset: 0xCD2A, size: 0x8, addend: 0x0, symName: __ZNKSt3__19basic_iosIcNS_11char_traitsIcEEE5widenB7v160006Ec, symObjAddr: 0x1CF0, symBinAddr: 0x100004C20, symSize: 0x84 }
  - { offsetInCU: 0xCD96, offset: 0xCD96, size: 0x8, addend: 0x0, symName: __ZNKSt3__15ctypeIcE5widenB7v160006Ec, symObjAddr: 0x1DA0, symBinAddr: 0x100004CD0, symSize: 0x38 }
  - { offsetInCU: 0xCDCA, offset: 0xCDCA, size: 0x8, addend: 0x0, symName: __ZNSt3__18ios_base8setstateB7v160006Ej, symObjAddr: 0x1DD8, symBinAddr: 0x100004D08, symSize: 0x34 }
  - { offsetInCU: 0xCDFF, offset: 0xCDFF, size: 0x8, addend: 0x0, symName: __ZNKSt3__112basic_stringIcNS_11char_traitsIcEENS_9allocatorIcEEE13__get_pointerB7v160006Ev, symObjAddr: 0x1E20, symBinAddr: 0x100004D50, symSize: 0x54 }
  - { offsetInCU: 0xCE24, offset: 0xCE24, size: 0x8, addend: 0x0, symName: __ZNKSt3__112basic_stringIcNS_11char_traitsIcEENS_9allocatorIcEEE9__is_longB7v160006Ev, symObjAddr: 0x1E74, symBinAddr: 0x100004DA4, symSize: 0x38 }
  - { offsetInCU: 0xCE49, offset: 0xCE49, size: 0x8, addend: 0x0, symName: __ZNKSt3__112basic_stringIcNS_11char_traitsIcEENS_9allocatorIcEEE18__get_long_pointerB7v160006Ev, symObjAddr: 0x1EAC, symBinAddr: 0x100004DDC, symSize: 0x28 }
  - { offsetInCU: 0xCE6E, offset: 0xCE6E, size: 0x8, addend: 0x0, symName: __ZNKSt3__112basic_stringIcNS_11char_traitsIcEENS_9allocatorIcEEE19__get_short_pointerB7v160006Ev, symObjAddr: 0x1ED4, symBinAddr: 0x100004E04, symSize: 0x28 }
  - { offsetInCU: 0xCE93, offset: 0xCE93, size: 0x8, addend: 0x0, symName: __ZNKSt3__117__compressed_pairINS_12basic_stringIcNS_11char_traitsIcEENS_9allocatorIcEEE5__repES5_E5firstB7v160006Ev, symObjAddr: 0x1EFC, symBinAddr: 0x100004E2C, symSize: 0x24 }
  - { offsetInCU: 0xCEB8, offset: 0xCEB8, size: 0x8, addend: 0x0, symName: __ZNKSt3__122__compressed_pair_elemINS_12basic_stringIcNS_11char_traitsIcEENS_9allocatorIcEEE5__repELi0ELb0EE5__getB7v160006Ev, symObjAddr: 0x1F20, symBinAddr: 0x100004E50, symSize: 0x14 }
  - { offsetInCU: 0xCEDD, offset: 0xCEDD, size: 0x8, addend: 0x0, symName: __ZNSt3__114pointer_traitsIPKcE10pointer_toB7v160006ERS1_, symObjAddr: 0x1F34, symBinAddr: 0x100004E64, symSize: 0x14 }
  - { offsetInCU: 0xCF00, offset: 0xCF00, size: 0x8, addend: 0x0, symName: __ZNKSt3__112basic_stringIcNS_11char_traitsIcEENS_9allocatorIcEEE15__get_long_sizeB7v160006Ev, symObjAddr: 0x1F48, symBinAddr: 0x100004E78, symSize: 0x28 }
  - { offsetInCU: 0xCF25, offset: 0xCF25, size: 0x8, addend: 0x0, symName: __ZNKSt3__112basic_stringIcNS_11char_traitsIcEENS_9allocatorIcEEE16__get_short_sizeB7v160006Ev, symObjAddr: 0x1F70, symBinAddr: 0x100004EA0, symSize: 0x34 }
  - { offsetInCU: 0xCF4A, offset: 0xCF4A, size: 0x8, addend: 0x0, symName: __ZNKSt3__111__wrap_iterIPP8SElementE4baseB7v160006Ev, symObjAddr: 0x1FEC, symBinAddr: 0x100004F1C, symSize: 0x18 }
  - { offsetInCU: 0xCF6F, offset: 0xCF6F, size: 0x8, addend: 0x0, symName: __ZNSt3__114basic_ifstreamIcNS_11char_traitsIcEEED2Ev, symObjAddr: 0x2004, symBinAddr: 0x100004F34, symSize: 0x64 }
  - { offsetInCU: 0xCFA7, offset: 0xCFA7, size: 0x8, addend: 0x0, symName: __ZTv0_n24_NSt3__114basic_ifstreamIcNS_11char_traitsIcEEED1Ev, symObjAddr: 0x2068, symBinAddr: 0x100004F98, symSize: 0x28 }
  - { offsetInCU: 0xCFBE, offset: 0xCFBE, size: 0x8, addend: 0x0, symName: __ZNSt3__112basic_stringIcNS_11char_traitsIcEENS_9allocatorIcEEEC2B7v160006Ev, symObjAddr: 0x2090, symBinAddr: 0x100004FC0, symSize: 0x50 }
  - { offsetInCU: 0xCFE7, offset: 0xCFE7, size: 0x8, addend: 0x0, symName: __ZNSt3__112basic_stringIcNS_11char_traitsIcEENS_9allocatorIcEEE14__default_initB7v160006Ev, symObjAddr: 0x20E0, symBinAddr: 0x100005010, symSize: 0x40 }
  - { offsetInCU: 0xD00C, offset: 0xD00C, size: 0x8, addend: 0x0, symName: __ZNSt3__117__compressed_pairINS_12basic_stringIcNS_11char_traitsIcEENS_9allocatorIcEEE5__repES5_E5firstB7v160006Ev, symObjAddr: 0x2120, symBinAddr: 0x100005050, symSize: 0x24 }
  - { offsetInCU: 0xD031, offset: 0xD031, size: 0x8, addend: 0x0, symName: __ZNSt3__122__compressed_pair_elemINS_12basic_stringIcNS_11char_traitsIcEENS_9allocatorIcEEE5__repELi0ELb0EE5__getB7v160006Ev, symObjAddr: 0x2144, symBinAddr: 0x100005074, symSize: 0x14 }
  - { offsetInCU: 0xD056, offset: 0xD056, size: 0x8, addend: 0x0, symName: __ZNSt3__111char_traitsIcE6lengthEPKc, symObjAddr: 0x2158, symBinAddr: 0x100005088, symSize: 0x34 }
  - { offsetInCU: 0xD079, offset: 0xD079, size: 0x8, addend: 0x0, symName: __ZNSt3__16vectorIP8SElementNS_9allocatorIS2_EEEC2B7v160006Ev, symObjAddr: 0x21B0, symBinAddr: 0x1000050E0, symSize: 0x58 }
  - { offsetInCU: 0xD0A7, offset: 0xD0A7, size: 0x8, addend: 0x0, symName: __ZNSt3__117__compressed_pairIPP8SElementNS_9allocatorIS2_EEEC1B7v160006IDnNS_18__default_init_tagEEEOT_OT0_, symObjAddr: 0x2208, symBinAddr: 0x100005138, symSize: 0x3C }
  - { offsetInCU: 0xD0FE, offset: 0xD0FE, size: 0x8, addend: 0x0, symName: __ZNSt3__117__compressed_pairIPP8SElementNS_9allocatorIS2_EEEC2B7v160006IDnNS_18__default_init_tagEEEOT_OT0_, symObjAddr: 0x2254, symBinAddr: 0x100005184, symSize: 0x40 }
  - { offsetInCU: 0xD155, offset: 0xD155, size: 0x8, addend: 0x0, symName: __ZNSt3__122__compressed_pair_elemIPP8SElementLi0ELb0EEC2B7v160006IDnvEEOT_, symObjAddr: 0x2294, symBinAddr: 0x1000051C4, symSize: 0x1C }
  - { offsetInCU: 0xD196, offset: 0xD196, size: 0x8, addend: 0x0, symName: __ZNSt3__122__compressed_pair_elemINS_9allocatorIP8SElementEELi1ELb1EEC2B7v160006ENS_18__default_init_tagE, symObjAddr: 0x22B0, symBinAddr: 0x1000051E0, symSize: 0x2C }
  - { offsetInCU: 0xD1CA, offset: 0xD1CA, size: 0x8, addend: 0x0, symName: __ZNSt3__19allocatorIP8SElementEC2B7v160006Ev, symObjAddr: 0x22DC, symBinAddr: 0x10000520C, symSize: 0x2C }
  - { offsetInCU: 0xD1F3, offset: 0xD1F3, size: 0x8, addend: 0x0, symName: __ZNSt3__116__non_trivial_ifILb1ENS_9allocatorIP8SElementEEEC2B7v160006Ev, symObjAddr: 0x2308, symBinAddr: 0x100005238, symSize: 0x14 }
  - { offsetInCU: 0xD21C, offset: 0xD21C, size: 0x8, addend: 0x0, symName: __ZNSt3__16vectorIP8SElementNS_9allocatorIS2_EEED2B7v160006Ev, symObjAddr: 0x231C, symBinAddr: 0x10000524C, symSize: 0x44 }
  - { offsetInCU: 0xD245, offset: 0xD245, size: 0x8, addend: 0x0, symName: __ZNSt3__16vectorIP8SElementNS_9allocatorIS2_EEE16__destroy_vectorC1ERS5_, symObjAddr: 0x2360, symBinAddr: 0x100005290, symSize: 0x34 }
  - { offsetInCU: 0xD27D, offset: 0xD27D, size: 0x8, addend: 0x0, symName: __ZNSt3__16vectorIP8SElementNS_9allocatorIS2_EEE16__destroy_vectorclB7v160006Ev, symObjAddr: 0x2394, symBinAddr: 0x1000052C4, symSize: 0x9C }
  - { offsetInCU: 0xD2A2, offset: 0xD2A2, size: 0x8, addend: 0x0, symName: __ZNSt3__16vectorIP8SElementNS_9allocatorIS2_EEE16__destroy_vectorC2ERS5_, symObjAddr: 0x2430, symBinAddr: 0x100005360, symSize: 0x20 }
  - { offsetInCU: 0xD2DA, offset: 0xD2DA, size: 0x8, addend: 0x0, symName: __ZNKSt3__16vectorIP8SElementNS_9allocatorIS2_EEE17__annotate_deleteB7v160006Ev, symObjAddr: 0x2450, symBinAddr: 0x100005380, symSize: 0xB8 }
  - { offsetInCU: 0xD2FF, offset: 0xD2FF, size: 0x8, addend: 0x0, symName: __ZNSt3__16vectorIP8SElementNS_9allocatorIS2_EEE7__clearB7v160006Ev, symObjAddr: 0x2518, symBinAddr: 0x100005448, symSize: 0x28 }
  - { offsetInCU: 0xD324, offset: 0xD324, size: 0x8, addend: 0x0, symName: __ZNSt3__116allocator_traitsINS_9allocatorIP8SElementEEE10deallocateB7v160006ERS4_PS3_m, symObjAddr: 0x2540, symBinAddr: 0x100005470, symSize: 0x34 }
  - { offsetInCU: 0xD366, offset: 0xD366, size: 0x8, addend: 0x0, symName: __ZNSt3__16vectorIP8SElementNS_9allocatorIS2_EEE7__allocB7v160006Ev, symObjAddr: 0x2574, symBinAddr: 0x1000054A4, symSize: 0x28 }
  - { offsetInCU: 0xD38B, offset: 0xD38B, size: 0x8, addend: 0x0, symName: __ZNKSt3__16vectorIP8SElementNS_9allocatorIS2_EEE8capacityB7v160006Ev, symObjAddr: 0x259C, symBinAddr: 0x1000054CC, symSize: 0x40 }
  - { offsetInCU: 0xD3B0, offset: 0xD3B0, size: 0x8, addend: 0x0, symName: __ZNKSt3__16vectorIP8SElementNS_9allocatorIS2_EEE31__annotate_contiguous_containerB7v160006EPKvS7_S7_S7_, symObjAddr: 0x25DC, symBinAddr: 0x10000550C, symSize: 0x20 }
  - { offsetInCU: 0xD401, offset: 0xD401, size: 0x8, addend: 0x0, symName: __ZNKSt3__16vectorIP8SElementNS_9allocatorIS2_EEE4dataB7v160006Ev, symObjAddr: 0x25FC, symBinAddr: 0x10000552C, symSize: 0x28 }
  - { offsetInCU: 0xD426, offset: 0xD426, size: 0x8, addend: 0x0, symName: __ZNKSt3__16vectorIP8SElementNS_9allocatorIS2_EEE4sizeB7v160006Ev, symObjAddr: 0x2624, symBinAddr: 0x100005554, symSize: 0x28 }
  - { offsetInCU: 0xD44B, offset: 0xD44B, size: 0x8, addend: 0x0, symName: __ZNSt3__16vectorIP8SElementNS_9allocatorIS2_EEE22__base_destruct_at_endB7v160006EPS2_, symObjAddr: 0x2660, symBinAddr: 0x100005590, symSize: 0x8C }
  - { offsetInCU: 0xD48E, offset: 0xD48E, size: 0x8, addend: 0x0, symName: __ZNSt3__116allocator_traitsINS_9allocatorIP8SElementEEE7destroyB7v160006IS3_vEEvRS4_PT_, symObjAddr: 0x26EC, symBinAddr: 0x10000561C, symSize: 0x2C }
  - { offsetInCU: 0xD4CB, offset: 0xD4CB, size: 0x8, addend: 0x0, symName: __ZNSt3__19allocatorIP8SElementE7destroyB7v160006EPS2_, symObjAddr: 0x2718, symBinAddr: 0x100005648, symSize: 0x14 }
  - { offsetInCU: 0xD4FE, offset: 0xD4FE, size: 0x8, addend: 0x0, symName: __ZNSt3__19allocatorIP8SElementE10deallocateB7v160006EPS2_m, symObjAddr: 0x272C, symBinAddr: 0x10000565C, symSize: 0x40 }
  - { offsetInCU: 0xD53F, offset: 0xD53F, size: 0x8, addend: 0x0, symName: __ZNSt3__117__compressed_pairIPP8SElementNS_9allocatorIS2_EEE6secondB7v160006Ev, symObjAddr: 0x27E8, symBinAddr: 0x100005718, symSize: 0x24 }
  - { offsetInCU: 0xD564, offset: 0xD564, size: 0x8, addend: 0x0, symName: __ZNSt3__122__compressed_pair_elemINS_9allocatorIP8SElementEELi1ELb1EE5__getB7v160006Ev, symObjAddr: 0x280C, symBinAddr: 0x10000573C, symSize: 0x14 }
  - { offsetInCU: 0xD589, offset: 0xD589, size: 0x8, addend: 0x0, symName: __ZNKSt3__16vectorIP8SElementNS_9allocatorIS2_EEE9__end_capB7v160006Ev, symObjAddr: 0x2820, symBinAddr: 0x100005750, symSize: 0x28 }
  - { offsetInCU: 0xD5AE, offset: 0xD5AE, size: 0x8, addend: 0x0, symName: __ZNKSt3__117__compressed_pairIPP8SElementNS_9allocatorIS2_EEE5firstB7v160006Ev, symObjAddr: 0x2848, symBinAddr: 0x100005778, symSize: 0x24 }
  - { offsetInCU: 0xD5D3, offset: 0xD5D3, size: 0x8, addend: 0x0, symName: __ZNKSt3__122__compressed_pair_elemIPP8SElementLi0ELb0EE5__getB7v160006Ev, symObjAddr: 0x286C, symBinAddr: 0x10000579C, symSize: 0x14 }
  - { offsetInCU: 0xD5F8, offset: 0xD5F8, size: 0x8, addend: 0x0, symName: __ZNSt3__19basic_iosIcNS_11char_traitsIcEEEC2B7v160006Ev, symObjAddr: 0x2880, symBinAddr: 0x1000057B0, symSize: 0x44 }
  - { offsetInCU: 0xD621, offset: 0xD621, size: 0x8, addend: 0x0, symName: __ZNSt3__113basic_istreamIcNS_11char_traitsIcEEEC2B7v160006EPNS_15basic_streambufIcS2_EE, symObjAddr: 0x28C4, symBinAddr: 0x1000057F4, symSize: 0x64 }
  - { offsetInCU: 0xD664, offset: 0xD664, size: 0x8, addend: 0x0, symName: __ZNSt3__18ios_baseC2B7v160006Ev, symObjAddr: 0x2928, symBinAddr: 0x100005858, symSize: 0x24 }
  - { offsetInCU: 0xD68D, offset: 0xD68D, size: 0x8, addend: 0x0, symName: __ZNSt3__19basic_iosIcNS_11char_traitsIcEEE4initB7v160006EPNS_15basic_streambufIcS2_EE, symObjAddr: 0x294C, symBinAddr: 0x10000587C, symSize: 0x44 }
  - { offsetInCU: 0xD6C2, offset: 0xD6C2, size: 0x8, addend: 0x0, symName: __ZNKSt3__113basic_filebufIcNS_11char_traitsIcEEE7is_openEv, symObjAddr: 0x2990, symBinAddr: 0x1000058C0, symSize: 0x24 }
  - { offsetInCU: 0xD6E9, offset: 0xD6E9, size: 0x8, addend: 0x0, symName: __ZNKSt3__19basic_iosIcNS_11char_traitsIcEEE4failB7v160006Ev, symObjAddr: 0x29B4, symBinAddr: 0x1000058E4, symSize: 0x28 }
  - { offsetInCU: 0xD70E, offset: 0xD70E, size: 0x8, addend: 0x0, symName: __ZNKSt3__18ios_base4failB7v160006Ev, symObjAddr: 0x29DC, symBinAddr: 0x10000590C, symSize: 0x28 }
  - { offsetInCU: 0xD735, offset: 0xD735, size: 0x8, addend: 0x0, symName: __ZNSt3__115basic_stringbufIcNS_11char_traitsIcEENS_9allocatorIcEEEC1B7v160006ERKNS_12basic_stringIcS2_S4_EEj, symObjAddr: 0x2A04, symBinAddr: 0x100005934, symSize: 0x3C }
  - { offsetInCU: 0xD77A, offset: 0xD77A, size: 0x8, addend: 0x0, symName: __ZNSt3__115basic_stringbufIcNS_11char_traitsIcEENS_9allocatorIcEEEC2B7v160006ERKNS_12basic_stringIcS2_S4_EEj, symObjAddr: 0x2A40, symBinAddr: 0x100005970, symSize: 0xB4 }
  - { offsetInCU: 0xD7BF, offset: 0xD7BF, size: 0x8, addend: 0x0, symName: __ZNKSt3__112basic_stringIcNS_11char_traitsIcEENS_9allocatorIcEEE13get_allocatorB7v160006Ev, symObjAddr: 0x2AF4, symBinAddr: 0x100005A24, symSize: 0x24 }
  - { offsetInCU: 0xD7E4, offset: 0xD7E4, size: 0x8, addend: 0x0, symName: __ZNSt3__112basic_stringIcNS_11char_traitsIcEENS_9allocatorIcEEEC1B7v160006ERKS4_, symObjAddr: 0x2B18, symBinAddr: 0x100005A48, symSize: 0x34 }
  - { offsetInCU: 0xD81C, offset: 0xD81C, size: 0x8, addend: 0x0, symName: __ZNKSt3__112basic_stringIcNS_11char_traitsIcEENS_9allocatorIcEEE7__allocB7v160006Ev, symObjAddr: 0x2B4C, symBinAddr: 0x100005A7C, symSize: 0x24 }
  - { offsetInCU: 0xD841, offset: 0xD841, size: 0x8, addend: 0x0, symName: __ZNKSt3__117__compressed_pairINS_12basic_stringIcNS_11char_traitsIcEENS_9allocatorIcEEE5__repES5_E6secondB7v160006Ev, symObjAddr: 0x2B70, symBinAddr: 0x100005AA0, symSize: 0x24 }
  - { offsetInCU: 0xD866, offset: 0xD866, size: 0x8, addend: 0x0, symName: __ZNKSt3__122__compressed_pair_elemINS_9allocatorIcEELi1ELb1EE5__getB7v160006Ev, symObjAddr: 0x2B94, symBinAddr: 0x100005AC4, symSize: 0x14 }
  - { offsetInCU: 0xD88B, offset: 0xD88B, size: 0x8, addend: 0x0, symName: __ZNSt3__112basic_stringIcNS_11char_traitsIcEENS_9allocatorIcEEEC2B7v160006ERKS4_, symObjAddr: 0x2BA8, symBinAddr: 0x100005AD8, symSize: 0x50 }
  - { offsetInCU: 0xD8C3, offset: 0xD8C3, size: 0x8, addend: 0x0, symName: __ZNSt3__117__compressed_pairINS_12basic_stringIcNS_11char_traitsIcEENS_9allocatorIcEEE5__repES5_EC1B7v160006INS_18__default_init_tagERKS5_EEOT_OT0_, symObjAddr: 0x2BF8, symBinAddr: 0x100005B28, symSize: 0x3C }
  - { offsetInCU: 0xD91A, offset: 0xD91A, size: 0x8, addend: 0x0, symName: __ZNSt3__117__compressed_pairINS_12basic_stringIcNS_11char_traitsIcEENS_9allocatorIcEEE5__repES5_EC2B7v160006INS_18__default_init_tagERKS5_EEOT_OT0_, symObjAddr: 0x2C34, symBinAddr: 0x100005B64, symSize: 0x40 }
  - { offsetInCU: 0xD971, offset: 0xD971, size: 0x8, addend: 0x0, symName: __ZNSt3__122__compressed_pair_elemINS_9allocatorIcEELi1ELb1EEC2B7v160006IRKS2_vEEOT_, symObjAddr: 0x2C74, symBinAddr: 0x100005BA4, symSize: 0x18 }
  - { offsetInCU: 0xD9D0, offset: 0xD9D0, size: 0x8, addend: 0x0, symName: __ZNKSt3__113basic_istreamIcNS_11char_traitsIcEEE6sentrycvbB7v160006Ev, symObjAddr: 0x2C8C, symBinAddr: 0x100005BBC, symSize: 0x1C }
  - { offsetInCU: 0xD9F5, offset: 0xD9F5, size: 0x8, addend: 0x0, symName: __ZNSt3__112basic_stringIcNS_11char_traitsIcEENS_9allocatorIcEEE5clearB7v160006Ev, symObjAddr: 0x2CA8, symBinAddr: 0x100005BD8, symSize: 0x88 }
  - { offsetInCU: 0xDA1B, offset: 0xDA1B, size: 0x8, addend: 0x0, symName: __ZNSt3__115basic_streambufIcNS_11char_traitsIcEEE6sbumpcB7v160006Ev, symObjAddr: 0x2D30, symBinAddr: 0x100005C60, symSize: 0x78 }
  - { offsetInCU: 0xDA40, offset: 0xDA40, size: 0x8, addend: 0x0, symName: __ZNSt3__111char_traitsIcE12to_char_typeEi, symObjAddr: 0x2DA8, symBinAddr: 0x100005CD8, symSize: 0x18 }
  - { offsetInCU: 0xDA63, offset: 0xDA63, size: 0x8, addend: 0x0, symName: __ZNSt3__111char_traitsIcE2eqEcc, symObjAddr: 0x2DC0, symBinAddr: 0x100005CF0, symSize: 0x28 }
  - { offsetInCU: 0xDA94, offset: 0xDA94, size: 0x8, addend: 0x0, symName: __ZNKSt3__112basic_stringIcNS_11char_traitsIcEENS_9allocatorIcEEE8max_sizeB7v160006Ev, symObjAddr: 0x2DE8, symBinAddr: 0x100005D18, symSize: 0xAC }
  - { offsetInCU: 0xDAE6, offset: 0xDAE6, size: 0x8, addend: 0x0, symName: __ZNSt3__18ios_base18__setstate_nothrowB7v160006Ej, symObjAddr: 0x2E94, symBinAddr: 0x100005DC4, symSize: 0x64 }
  - { offsetInCU: 0xDB1A, offset: 0xDB1A, size: 0x8, addend: 0x0, symName: __ZNKSt3__19basic_iosIcNS_11char_traitsIcEEE10exceptionsB7v160006Ev, symObjAddr: 0x2EF8, symBinAddr: 0x100005E28, symSize: 0x24 }
  - { offsetInCU: 0xDB3F, offset: 0xDB3F, size: 0x8, addend: 0x0, symName: __ZNSt3__111char_traitsIcE6assignERcRKc, symObjAddr: 0x2F2C, symBinAddr: 0x100005E5C, symSize: 0x24 }
  - { offsetInCU: 0xDB70, offset: 0xDB70, size: 0x8, addend: 0x0, symName: __ZNSt3__112basic_stringIcNS_11char_traitsIcEENS_9allocatorIcEEE18__get_long_pointerB7v160006Ev, symObjAddr: 0x2F50, symBinAddr: 0x100005E80, symSize: 0x28 }
  - { offsetInCU: 0xDB95, offset: 0xDB95, size: 0x8, addend: 0x0, symName: __ZNSt3__112basic_stringIcNS_11char_traitsIcEENS_9allocatorIcEEE15__set_long_sizeB7v160006Em, symObjAddr: 0x2F78, symBinAddr: 0x100005EA8, symSize: 0x38 }
  - { offsetInCU: 0xDBC9, offset: 0xDBC9, size: 0x8, addend: 0x0, symName: __ZNSt3__112basic_stringIcNS_11char_traitsIcEENS_9allocatorIcEEE19__get_short_pointerB7v160006Ev, symObjAddr: 0x2FB0, symBinAddr: 0x100005EE0, symSize: 0x28 }
  - { offsetInCU: 0xDBEE, offset: 0xDBEE, size: 0x8, addend: 0x0, symName: __ZNSt3__112basic_stringIcNS_11char_traitsIcEENS_9allocatorIcEEE16__set_short_sizeB7v160006Em, symObjAddr: 0x2FD8, symBinAddr: 0x100005F08, symSize: 0x78 }
  - { offsetInCU: 0xDC22, offset: 0xDC22, size: 0x8, addend: 0x0, symName: __ZNSt3__114pointer_traitsIPcE10pointer_toB7v160006ERc, symObjAddr: 0x3050, symBinAddr: 0x100005F80, symSize: 0x14 }
  - { offsetInCU: 0xDC45, offset: 0xDC45, size: 0x8, addend: 0x0, symName: __ZNSt3__111char_traitsIcE11to_int_typeEc, symObjAddr: 0x3064, symBinAddr: 0x100005F94, symSize: 0x14 }
  - { offsetInCU: 0xDC72, offset: 0xDC72, size: 0x8, addend: 0x0, symName: __ZNSt3__116allocator_traitsINS_9allocatorIcEEE8max_sizeB7v160006IS2_vEEmRKS2_, symObjAddr: 0x3078, symBinAddr: 0x100005FA8, symSize: 0x24 }
  - { offsetInCU: 0xDCA0, offset: 0xDCA0, size: 0x8, addend: 0x0, symName: __ZNSt3__114numeric_limitsImE3maxB7v160006Ev, symObjAddr: 0x309C, symBinAddr: 0x100005FCC, symSize: 0x14 }
  - { offsetInCU: 0xDCB4, offset: 0xDCB4, size: 0x8, addend: 0x0, symName: __ZNKSt3__19allocatorIcE8max_sizeB7v160006Ev, symObjAddr: 0x30B0, symBinAddr: 0x100005FE0, symSize: 0x14 }
  - { offsetInCU: 0xDCD9, offset: 0xDCD9, size: 0x8, addend: 0x0, symName: __ZNSt3__123__libcpp_numeric_limitsImLb1EE3maxB7v160006Ev, symObjAddr: 0x30C4, symBinAddr: 0x100005FF4, symSize: 0x8 }
  - { offsetInCU: 0xDCED, offset: 0xDCED, size: 0x8, addend: 0x0, symName: __ZNKSt3__18ios_base10exceptionsB7v160006Ev, symObjAddr: 0x30CC, symBinAddr: 0x100005FFC, symSize: 0x18 }
  - { offsetInCU: 0xDD14, offset: 0xDD14, size: 0x8, addend: 0x0, symName: __ZNSt3__16vectorIP8SElementNS_9allocatorIS2_EEE9__end_capB7v160006Ev, symObjAddr: 0x30E4, symBinAddr: 0x100006014, symSize: 0x28 }
  - { offsetInCU: 0xDD3E, offset: 0xDD3E, size: 0x8, addend: 0x0, symName: __ZNSt3__16vectorIP8SElementNS_9allocatorIS2_EEE22__construct_one_at_endB7v160006IJS2_EEEvDpOT_, symObjAddr: 0x310C, symBinAddr: 0x10000603C, symSize: 0x90 }
  - { offsetInCU: 0xDD8C, offset: 0xDD8C, size: 0x8, addend: 0x0, symName: __ZNSt3__16vectorIP8SElementNS_9allocatorIS2_EEE21__push_back_slow_pathIS2_EEvOT_, symObjAddr: 0x319C, symBinAddr: 0x1000060CC, symSize: 0xD8 }
  - { offsetInCU: 0xDDE8, offset: 0xDDE8, size: 0x8, addend: 0x0, symName: __ZNSt3__117__compressed_pairIPP8SElementNS_9allocatorIS2_EEE5firstB7v160006Ev, symObjAddr: 0x3274, symBinAddr: 0x1000061A4, symSize: 0x24 }
  - { offsetInCU: 0xDE0D, offset: 0xDE0D, size: 0x8, addend: 0x0, symName: __ZNSt3__122__compressed_pair_elemIPP8SElementLi0ELb0EE5__getB7v160006Ev, symObjAddr: 0x3298, symBinAddr: 0x1000061C8, symSize: 0x14 }
  - { offsetInCU: 0xDE4B, offset: 0xDE4B, size: 0x8, addend: 0x0, symName: __ZNSt3__16vectorIP8SElementNS_9allocatorIS2_EEE21_ConstructTransactionC1B7v160006ERS5_m, symObjAddr: 0x32AC, symBinAddr: 0x1000061DC, symSize: 0x3C }
  - { offsetInCU: 0xDE92, offset: 0xDE92, size: 0x8, addend: 0x0, symName: __ZNSt3__116allocator_traitsINS_9allocatorIP8SElementEEE9constructB7v160006IS3_JS3_EvEEvRS4_PT_DpOT0_, symObjAddr: 0x32E8, symBinAddr: 0x100006218, symSize: 0x34 }
  - { offsetInCU: 0xDEE9, offset: 0xDEE9, size: 0x8, addend: 0x0, symName: __ZNSt3__16vectorIP8SElementNS_9allocatorIS2_EEE21_ConstructTransactionD1B7v160006Ev, symObjAddr: 0x331C, symBinAddr: 0x10000624C, symSize: 0x2C }
  - { offsetInCU: 0xDF12, offset: 0xDF12, size: 0x8, addend: 0x0, symName: __ZNSt3__16vectorIP8SElementNS_9allocatorIS2_EEE21_ConstructTransactionC2B7v160006ERS5_m, symObjAddr: 0x3348, symBinAddr: 0x100006278, symSize: 0x44 }
  - { offsetInCU: 0xDF59, offset: 0xDF59, size: 0x8, addend: 0x0, symName: __ZNSt3__19allocatorIP8SElementE9constructB7v160006IS2_JS2_EEEvPT_DpOT0_, symObjAddr: 0x338C, symBinAddr: 0x1000062BC, symSize: 0x28 }
  - { offsetInCU: 0xDFAE, offset: 0xDFAE, size: 0x8, addend: 0x0, symName: __ZNSt3__16vectorIP8SElementNS_9allocatorIS2_EEE21_ConstructTransactionD2B7v160006Ev, symObjAddr: 0x33B4, symBinAddr: 0x1000062E4, symSize: 0x20 }
  - { offsetInCU: 0xDFD7, offset: 0xDFD7, size: 0x8, addend: 0x0, symName: __ZNKSt3__16vectorIP8SElementNS_9allocatorIS2_EEE11__recommendB7v160006Em, symObjAddr: 0x33D4, symBinAddr: 0x100006304, symSize: 0xB4 }
  - { offsetInCU: 0xE02A, offset: 0xE02A, size: 0x8, addend: 0x0, symName: __ZNSt3__114__split_bufferIP8SElementRNS_9allocatorIS2_EEEC1EmmS5_, symObjAddr: 0x3488, symBinAddr: 0x1000063B8, symSize: 0x44 }
  - { offsetInCU: 0xE07F, offset: 0xE07F, size: 0x8, addend: 0x0, symName: __ZNSt3__114__split_bufferIP8SElementRNS_9allocatorIS2_EEED1Ev, symObjAddr: 0x35E4, symBinAddr: 0x100006514, symSize: 0x2C }
  - { offsetInCU: 0xE0AA, offset: 0xE0AA, size: 0x8, addend: 0x0, symName: __ZNKSt3__16vectorIP8SElementNS_9allocatorIS2_EEE8max_sizeEv, symObjAddr: 0x3610, symBinAddr: 0x100006540, symSize: 0x60 }
  - { offsetInCU: 0xE0D0, offset: 0xE0D0, size: 0x8, addend: 0x0, symName: __ZNKSt3__16vectorIP8SElementNS_9allocatorIS2_EEE20__throw_length_errorB7v160006Ev, symObjAddr: 0x3670, symBinAddr: 0x1000065A0, symSize: 0x1C }
  - { offsetInCU: 0xE0FF, offset: 0xE0FF, size: 0x8, addend: 0x0, symName: __ZNSt3__116allocator_traitsINS_9allocatorIP8SElementEEE8max_sizeB7v160006IS4_vEEmRKS4_, symObjAddr: 0x36E4, symBinAddr: 0x100006614, symSize: 0x24 }
  - { offsetInCU: 0xE12D, offset: 0xE12D, size: 0x8, addend: 0x0, symName: __ZNKSt3__16vectorIP8SElementNS_9allocatorIS2_EEE7__allocB7v160006Ev, symObjAddr: 0x3708, symBinAddr: 0x100006638, symSize: 0x28 }
  - { offsetInCU: 0xE152, offset: 0xE152, size: 0x8, addend: 0x0, symName: __ZNSt3__114numeric_limitsIlE3maxB7v160006Ev, symObjAddr: 0x3730, symBinAddr: 0x100006660, symSize: 0x14 }
  - { offsetInCU: 0xE17A, offset: 0xE17A, size: 0x8, addend: 0x0, symName: __ZNKSt3__16__lessImmEclB7v160006ERKmS3_, symObjAddr: 0x3798, symBinAddr: 0x1000066C8, symSize: 0x34 }
  - { offsetInCU: 0xE1BB, offset: 0xE1BB, size: 0x8, addend: 0x0, symName: __ZNKSt3__19allocatorIP8SElementE8max_sizeB7v160006Ev, symObjAddr: 0x37CC, symBinAddr: 0x1000066FC, symSize: 0x14 }
  - { offsetInCU: 0xE1E0, offset: 0xE1E0, size: 0x8, addend: 0x0, symName: __ZNKSt3__117__compressed_pairIPP8SElementNS_9allocatorIS2_EEE6secondB7v160006Ev, symObjAddr: 0x37E0, symBinAddr: 0x100006710, symSize: 0x24 }
  - { offsetInCU: 0xE205, offset: 0xE205, size: 0x8, addend: 0x0, symName: __ZNKSt3__122__compressed_pair_elemINS_9allocatorIP8SElementEELi1ELb1EE5__getB7v160006Ev, symObjAddr: 0x3804, symBinAddr: 0x100006734, symSize: 0x14 }
  - { offsetInCU: 0xE22A, offset: 0xE22A, size: 0x8, addend: 0x0, symName: __ZNSt3__123__libcpp_numeric_limitsIlLb1EE3maxB7v160006Ev, symObjAddr: 0x3818, symBinAddr: 0x100006748, symSize: 0x8 }
  - { offsetInCU: 0xE23E, offset: 0xE23E, size: 0x8, addend: 0x0, symName: __ZNSt12length_errorC1B7v160006EPKc, symObjAddr: 0x3884, symBinAddr: 0x1000067B4, symSize: 0x34 }
  - { offsetInCU: 0xE275, offset: 0xE275, size: 0x8, addend: 0x0, symName: __ZNSt12length_errorC2B7v160006EPKc, symObjAddr: 0x38B8, symBinAddr: 0x1000067E8, symSize: 0x4C }
  - { offsetInCU: 0xE2AC, offset: 0xE2AC, size: 0x8, addend: 0x0, symName: __ZNSt3__114__split_bufferIP8SElementRNS_9allocatorIS2_EEEC2EmmS5_, symObjAddr: 0x3958, symBinAddr: 0x100006888, symSize: 0xD4 }
  - { offsetInCU: 0xE31F, offset: 0xE31F, size: 0x8, addend: 0x0, symName: __ZNSt3__117__compressed_pairIPP8SElementRNS_9allocatorIS2_EEEC1B7v160006IDnS6_EEOT_OT0_, symObjAddr: 0x3A2C, symBinAddr: 0x10000695C, symSize: 0x3C }
  - { offsetInCU: 0xE376, offset: 0xE376, size: 0x8, addend: 0x0, symName: __ZNSt3__114__split_bufferIP8SElementRNS_9allocatorIS2_EEE7__allocB7v160006Ev, symObjAddr: 0x3AA8, symBinAddr: 0x1000069D8, symSize: 0x28 }
  - { offsetInCU: 0xE39B, offset: 0xE39B, size: 0x8, addend: 0x0, symName: __ZNSt3__114__split_bufferIP8SElementRNS_9allocatorIS2_EEE9__end_capB7v160006Ev, symObjAddr: 0x3AD0, symBinAddr: 0x100006A00, symSize: 0x28 }
  - { offsetInCU: 0xE3C0, offset: 0xE3C0, size: 0x8, addend: 0x0, symName: __ZNSt3__117__compressed_pairIPP8SElementRNS_9allocatorIS2_EEEC2B7v160006IDnS6_EEOT_OT0_, symObjAddr: 0x3AF8, symBinAddr: 0x100006A28, symSize: 0x48 }
  - { offsetInCU: 0xE417, offset: 0xE417, size: 0x8, addend: 0x0, symName: __ZNSt3__122__compressed_pair_elemIRNS_9allocatorIP8SElementEELi1ELb0EEC2B7v160006IS5_vEEOT_, symObjAddr: 0x3B40, symBinAddr: 0x100006A70, symSize: 0x20 }
  - { offsetInCU: 0xE458, offset: 0xE458, size: 0x8, addend: 0x0, symName: __ZNSt3__19allocatorIP8SElementE8allocateB7v160006Em, symObjAddr: 0x3B60, symBinAddr: 0x100006A90, symSize: 0x58 }
  - { offsetInCU: 0xE48B, offset: 0xE48B, size: 0x8, addend: 0x0, symName: __ZNSt3__117__compressed_pairIPP8SElementRNS_9allocatorIS2_EEE6secondB7v160006Ev, symObjAddr: 0x3C38, symBinAddr: 0x100006B68, symSize: 0x28 }
  - { offsetInCU: 0xE4B0, offset: 0xE4B0, size: 0x8, addend: 0x0, symName: __ZNSt3__122__compressed_pair_elemIRNS_9allocatorIP8SElementEELi1ELb0EE5__getB7v160006Ev, symObjAddr: 0x3C60, symBinAddr: 0x100006B90, symSize: 0x18 }
  - { offsetInCU: 0xE4D5, offset: 0xE4D5, size: 0x8, addend: 0x0, symName: __ZNSt3__117__compressed_pairIPP8SElementRNS_9allocatorIS2_EEE5firstB7v160006Ev, symObjAddr: 0x3C78, symBinAddr: 0x100006BA8, symSize: 0x24 }
  - { offsetInCU: 0xE4FA, offset: 0xE4FA, size: 0x8, addend: 0x0, symName: __ZNSt3__116reverse_iteratorIPP8SElementEC1B7v160006ES3_, symObjAddr: 0x3D14, symBinAddr: 0x100006C44, symSize: 0x34 }
  - { offsetInCU: 0xE531, offset: 0xE531, size: 0x8, addend: 0x0, symName: __ZNKSt3__116reverse_iteratorIPP8SElementE4baseB7v160006Ev, symObjAddr: 0x3D48, symBinAddr: 0x100006C78, symSize: 0x18 }
  - { offsetInCU: 0xE556, offset: 0xE556, size: 0x8, addend: 0x0, symName: __ZNKSt3__16vectorIP8SElementNS_9allocatorIS2_EEE14__annotate_newB7v160006Em, symObjAddr: 0x3D9C, symBinAddr: 0x100006CCC, symSize: 0xAC }
  - { offsetInCU: 0xE5AD, offset: 0xE5AD, size: 0x8, addend: 0x0, symName: __ZNKSt3__111__move_loopINS_17_ClassicAlgPolicyEEclB7v160006INS_16reverse_iteratorIPP8SElementEES8_S8_EENS_4pairIT_T1_EESA_T0_SB_, symObjAddr: 0x4148, symBinAddr: 0x100007078, symSize: 0xA0 }
  - { offsetInCU: 0xE617, offset: 0xE617, size: 0x8, addend: 0x0, symName: __ZNSt3__18_IterOpsINS_17_ClassicAlgPolicyEE11__iter_moveB7v160006IRNS_16reverse_iteratorIPP8SElementEEEENS_9enable_ifIXsr12is_referenceIDTdeclsr3stdE7declvalIRT_EEEEE5valueEDTclsr3stdE4movedeclsr3stdE7declvalISC_EEEEE4typeEOSB_, symObjAddr: 0x437C, symBinAddr: 0x1000072AC, symSize: 0x28 }
  - { offsetInCU: 0xE643, offset: 0xE643, size: 0x8, addend: 0x0, symName: __ZNKSt3__116reverse_iteratorIPP8SElementEdeB7v160006Ev, symObjAddr: 0x43A4, symBinAddr: 0x1000072D4, symSize: 0x28 }
  - { offsetInCU: 0xE676, offset: 0xE676, size: 0x8, addend: 0x0, symName: __ZNSt3__116reverse_iteratorIPP8SElementEppB7v160006Ev, symObjAddr: 0x43CC, symBinAddr: 0x1000072FC, symSize: 0x20 }
  - { offsetInCU: 0xE69B, offset: 0xE69B, size: 0x8, addend: 0x0, symName: __ZNSt3__18_IterOpsINS_17_ClassicAlgPolicyEE25__validate_iter_referenceB7v160006IRNS_16reverse_iteratorIPP8SElementEEEEvv, symObjAddr: 0x43EC, symBinAddr: 0x10000731C, symSize: 0x4 }
  - { offsetInCU: 0xE6B9, offset: 0xE6B9, size: 0x8, addend: 0x0, symName: __ZNSt3__118__unwrap_iter_implINS_16reverse_iteratorIPP8SElementEELb0EE8__unwrapB7v160006ES5_, symObjAddr: 0x43F0, symBinAddr: 0x100007320, symSize: 0x24 }
  - { offsetInCU: 0xE6E1, offset: 0xE6E1, size: 0x8, addend: 0x0, symName: __ZNSt3__14pairINS_16reverse_iteratorIPP8SElementEES5_EC1B7v160006IS5_S5_LPv0EEEOT_OT0_, symObjAddr: 0x4414, symBinAddr: 0x100007344, symSize: 0x3C }
  - { offsetInCU: 0xE73E, offset: 0xE73E, size: 0x8, addend: 0x0, symName: __ZNSt3__14pairINS_16reverse_iteratorIPP8SElementEES5_EC2B7v160006IS5_S5_LPv0EEEOT_OT0_, symObjAddr: 0x4450, symBinAddr: 0x100007380, symSize: 0x34 }
  - { offsetInCU: 0xE79B, offset: 0xE79B, size: 0x8, addend: 0x0, symName: __ZNSt3__118__unwrap_iter_implINS_16reverse_iteratorIPP8SElementEELb0EE8__rewrapB7v160006ES5_S5_, symObjAddr: 0x4484, symBinAddr: 0x1000073B4, symSize: 0x2C }
  - { offsetInCU: 0xE7C9, offset: 0xE7C9, size: 0x8, addend: 0x0, symName: __ZNSt3__116reverse_iteratorIPP8SElementEC2B7v160006ES3_, symObjAddr: 0x44B0, symBinAddr: 0x1000073E0, symSize: 0x28 }
  - { offsetInCU: 0xE800, offset: 0xE800, size: 0x8, addend: 0x0, symName: __ZNSt3__114__split_bufferIP8SElementRNS_9allocatorIS2_EEED2Ev, symObjAddr: 0x44D8, symBinAddr: 0x100007408, symSize: 0x8C }
  - { offsetInCU: 0xE82B, offset: 0xE82B, size: 0x8, addend: 0x0, symName: __ZNSt3__114__split_bufferIP8SElementRNS_9allocatorIS2_EEE5clearB7v160006Ev, symObjAddr: 0x4564, symBinAddr: 0x100007494, symSize: 0x28 }
  - { offsetInCU: 0xE850, offset: 0xE850, size: 0x8, addend: 0x0, symName: __ZNKSt3__114__split_bufferIP8SElementRNS_9allocatorIS2_EEE8capacityB7v160006Ev, symObjAddr: 0x458C, symBinAddr: 0x1000074BC, symSize: 0x40 }
  - { offsetInCU: 0xE875, offset: 0xE875, size: 0x8, addend: 0x0, symName: __ZNSt3__114__split_bufferIP8SElementRNS_9allocatorIS2_EEE17__destruct_at_endB7v160006EPS2_, symObjAddr: 0x45CC, symBinAddr: 0x1000074FC, symSize: 0x2C }
  - { offsetInCU: 0xE8A8, offset: 0xE8A8, size: 0x8, addend: 0x0, symName: __ZNSt3__114__split_bufferIP8SElementRNS_9allocatorIS2_EEE17__destruct_at_endB7v160006EPS2_NS_17integral_constantIbLb0EEE, symObjAddr: 0x45F8, symBinAddr: 0x100007528, symSize: 0x80 }
  - { offsetInCU: 0xE8E7, offset: 0xE8E7, size: 0x8, addend: 0x0, symName: __ZNKSt3__114__split_bufferIP8SElementRNS_9allocatorIS2_EEE9__end_capB7v160006Ev, symObjAddr: 0x4678, symBinAddr: 0x1000075A8, symSize: 0x28 }
  - { offsetInCU: 0xE90C, offset: 0xE90C, size: 0x8, addend: 0x0, symName: __ZNKSt3__117__compressed_pairIPP8SElementRNS_9allocatorIS2_EEE5firstB7v160006Ev, symObjAddr: 0x46A0, symBinAddr: 0x1000075D0, symSize: 0x24 }
  - { offsetInCU: 0xE931, offset: 0xE931, size: 0x8, addend: 0x0, symName: __ZNSt3__112basic_stringIcNS_11char_traitsIcEENS_9allocatorIcEEE13__get_pointerB7v160006Ev, symObjAddr: 0x46C4, symBinAddr: 0x1000075F4, symSize: 0x54 }
  - { offsetInCU: 0xE956, offset: 0xE956, size: 0x8, addend: 0x0, symName: __ZNSt3__16vectorIP8SElementNS_9allocatorIS2_EEE11__make_iterB7v160006EPS2_, symObjAddr: 0x4718, symBinAddr: 0x100007648, symSize: 0x34 }
  - { offsetInCU: 0xE98A, offset: 0xE98A, size: 0x8, addend: 0x0, symName: __ZNSt3__111__wrap_iterIPP8SElementEC1B7v160006EPKvS3_, symObjAddr: 0x474C, symBinAddr: 0x10000767C, symSize: 0x3C }
  - { offsetInCU: 0xE9CF, offset: 0xE9CF, size: 0x8, addend: 0x0, symName: __ZNSt3__111__wrap_iterIPP8SElementEC2B7v160006EPKvS3_, symObjAddr: 0x4788, symBinAddr: 0x1000076B8, symSize: 0x24 }
...
